; ModuleID = '17/1271.c'
source_filename = "17/1271.c"
target datalayout = "e-m:e-p270:32:32-p271:32:32-p272:64:64-i64:64-f80:128-n8:16:32:64-S128"
target triple = "x86_64-pc-linux-gnu"

@.str = private unnamed_addr constant [3 x i8] c"%d\00", align 1
@.str.1 = private unnamed_addr constant [3 x i8] c"%s\00", align 1
@.str.2 = private unnamed_addr constant [2 x i8] c"\0A\00", align 1
@.str.3 = private unnamed_addr constant [2 x i8] c" \00", align 1

; Function Attrs: noinline nounwind uwtable
define dso_local i32 @zuok(i8* %0, i32 %1, i32 %2) #0 {
  %4 = alloca i32, align 4
  %5 = alloca i8*, align 8
  %6 = alloca i32, align 4
  %7 = alloca i32, align 4
  %8 = alloca i32, align 4
  %9 = alloca i32, align 4
  %10 = alloca i32, align 4
  store i8* %0, i8** %5, align 8
  store i32 %1, i32* %6, align 4
  store i32 %2, i32* %7, align 4
  store i32 1, i32* %9, align 4
  store i32 0, i32* %10, align 4
  %11 = load i32, i32* %6, align 4
  %12 = add nsw i32 %11, 1
  store i32 %12, i32* %8, align 4
  br label %13

13:                                               ; preds = %46, %3
  %14 = load i32, i32* %8, align 4
  %15 = load i32, i32* %7, align 4
  %16 = icmp slt i32 %14, %15
  br i1 %16, label %17, label %49

17:                                               ; preds = %13
  %18 = load i8*, i8** %5, align 8
  %19 = load i32, i32* %8, align 4
  %20 = sext i32 %19 to i64
  %21 = getelementptr inbounds i8, i8* %18, i64 %20
  %22 = load i8, i8* %21, align 1
  %23 = sext i8 %22 to i32
  %24 = icmp eq i32 %23, 40
  br i1 %24, label %25, label %28

25:                                               ; preds = %17
  %26 = load i32, i32* %9, align 4
  %27 = add nsw i32 %26, 1
  store i32 %27, i32* %9, align 4
  br label %40

28:                                               ; preds = %17
  %29 = load i8*, i8** %5, align 8
  %30 = load i32, i32* %8, align 4
  %31 = sext i32 %30 to i64
  %32 = getelementptr inbounds i8, i8* %29, i64 %31
  %33 = load i8, i8* %32, align 1
  %34 = sext i8 %33 to i32
  %35 = icmp eq i32 %34, 41
  br i1 %35, label %36, label %39

36:                                               ; preds = %28
  %37 = load i32, i32* %10, align 4
  %38 = add nsw i32 %37, 1
  store i32 %38, i32* %10, align 4
  br label %39

39:                                               ; preds = %36, %28
  br label %40

40:                                               ; preds = %39, %25
  %41 = load i32, i32* %9, align 4
  %42 = load i32, i32* %10, align 4
  %43 = icmp eq i32 %41, %42
  br i1 %43, label %44, label %45

44:                                               ; preds = %40
  store i32 1, i32* %4, align 4
  br label %50

45:                                               ; preds = %40
  br label %46

46:                                               ; preds = %45
  %47 = load i32, i32* %8, align 4
  %48 = add nsw i32 %47, 1
  store i32 %48, i32* %8, align 4
  br label %13

49:                                               ; preds = %13
  store i32 0, i32* %4, align 4
  br label %50

50:                                               ; preds = %49, %44
  %51 = load i32, i32* %4, align 4
  ret i32 %51
}

; Function Attrs: noinline nounwind uwtable
define dso_local i32 @youk(i8* %0, i32 %1, i32 %2) #0 {
  %4 = alloca i32, align 4
  %5 = alloca i8*, align 8
  %6 = alloca i32, align 4
  %7 = alloca i32, align 4
  %8 = alloca i32, align 4
  %9 = alloca i32, align 4
  %10 = alloca i32, align 4
  store i8* %0, i8** %5, align 8
  store i32 %1, i32* %6, align 4
  store i32 %2, i32* %7, align 4
  store i32 1, i32* %9, align 4
  store i32 0, i32* %10, align 4
  %11 = load i32, i32* %6, align 4
  %12 = sub nsw i32 %11, 1
  store i32 %12, i32* %8, align 4
  br label %13

13:                                               ; preds = %45, %3
  %14 = load i32, i32* %8, align 4
  %15 = icmp sge i32 %14, 0
  br i1 %15, label %16, label %48

16:                                               ; preds = %13
  %17 = load i8*, i8** %5, align 8
  %18 = load i32, i32* %8, align 4
  %19 = sext i32 %18 to i64
  %20 = getelementptr inbounds i8, i8* %17, i64 %19
  %21 = load i8, i8* %20, align 1
  %22 = sext i8 %21 to i32
  %23 = icmp eq i32 %22, 40
  br i1 %23, label %24, label %27

24:                                               ; preds = %16
  %25 = load i32, i32* %10, align 4
  %26 = add nsw i32 %25, 1
  store i32 %26, i32* %10, align 4
  br label %39

27:                                               ; preds = %16
  %28 = load i8*, i8** %5, align 8
  %29 = load i32, i32* %8, align 4
  %30 = sext i32 %29 to i64
  %31 = getelementptr inbounds i8, i8* %28, i64 %30
  %32 = load i8, i8* %31, align 1
  %33 = sext i8 %32 to i32
  %34 = icmp eq i32 %33, 41
  br i1 %34, label %35, label %38

35:                                               ; preds = %27
  %36 = load i32, i32* %9, align 4
  %37 = add nsw i32 %36, 1
  store i32 %37, i32* %9, align 4
  br label %38

38:                                               ; preds = %35, %27
  br label %39

39:                                               ; preds = %38, %24
  %40 = load i32, i32* %10, align 4
  %41 = load i32, i32* %9, align 4
  %42 = icmp eq i32 %40, %41
  br i1 %42, label %43, label %44

43:                                               ; preds = %39
  store i32 1, i32* %4, align 4
  br label %49

44:                                               ; preds = %39
  br label %45

45:                                               ; preds = %44
  %46 = load i32, i32* %8, align 4
  %47 = add nsw i32 %46, -1
  store i32 %47, i32* %8, align 4
  br label %13

48:                                               ; preds = %13
  store i32 0, i32* %4, align 4
  br label %49

49:                                               ; preds = %48, %43
  %50 = load i32, i32* %4, align 4
  ret i32 %50
}

; Function Attrs: noinline nounwind uwtable
define dso_local i32 @main() #0 {
  %1 = alloca i32, align 4
  %2 = alloca i32, align 4
  %3 = alloca i32, align 4
  %4 = alloca [200 x i8], align 16
  %5 = alloca i32, align 4
  %6 = alloca i32, align 4
  store i32 0, i32* %1, align 4
  %7 = call i32 (i8*, ...) @__isoc99_scanf(i8* getelementptr inbounds ([3 x i8], [3 x i8]* @.str, i64 0, i64 0), i32* %2)
  %8 = call i32 @getchar()
  store i32 0, i32* %3, align 4
  br label %9

9:                                                ; preds = %72, %0
  %10 = load i32, i32* %3, align 4
  %11 = load i32, i32* %2, align 4
  %12 = icmp slt i32 %10, %11
  br i1 %12, label %13, label %75

13:                                               ; preds = %9
  %14 = getelementptr inbounds [200 x i8], [200 x i8]* %4, i64 0, i64 0
  %15 = call i32 (i8*, ...) @__isoc99_scanf(i8* getelementptr inbounds ([3 x i8], [3 x i8]* @.str.1, i64 0, i64 0), i8* %14)
  %16 = call i32 @getchar()
  %17 = getelementptr inbounds [200 x i8], [200 x i8]* %4, i64 0, i64 0
  %18 = call i32 (i8*, ...) @printf(i8* %17)
  %19 = call i32 (i8*, ...) @printf(i8* getelementptr inbounds ([2 x i8], [2 x i8]* @.str.2, i64 0, i64 0))
  %20 = getelementptr inbounds [200 x i8], [200 x i8]* %4, i64 0, i64 0
  %21 = call i64 @strlen(i8* %20) #3
  %22 = trunc i64 %21 to i32
  store i32 %22, i32* %5, align 4
  store i32 0, i32* %6, align 4
  br label %23

23:                                               ; preds = %67, %13
  %24 = load i32, i32* %6, align 4
  %25 = load i32, i32* %5, align 4
  %26 = icmp slt i32 %24, %25
  br i1 %26, label %27, label %70

27:                                               ; preds = %23
  %28 = load i32, i32* %6, align 4
  %29 = sext i32 %28 to i64
  %30 = getelementptr inbounds [200 x i8], [200 x i8]* %4, i64 0, i64 %29
  %31 = load i8, i8* %30, align 1
  %32 = sext i8 %31 to i32
  %33 = icmp eq i32 %32, 40
  br i1 %33, label %34, label %45

34:                                               ; preds = %27
  %35 = getelementptr inbounds [200 x i8], [200 x i8]* %4, i64 0, i64 0
  %36 = load i32, i32* %6, align 4
  %37 = load i32, i32* %5, align 4
  %38 = call i32 @zuok(i8* %35, i32 %36, i32 %37)
  %39 = icmp ne i32 %38, 0
  br i1 %39, label %42, label %40

40:                                               ; preds = %34
  %41 = call i32 @putchar(i32 36)
  br label %44

42:                                               ; preds = %34
  %43 = call i32 (i8*, ...) @printf(i8* getelementptr inbounds ([2 x i8], [2 x i8]* @.str.3, i64 0, i64 0))
  br label %44

44:                                               ; preds = %42, %40
  br label %66

45:                                               ; preds = %27
  %46 = load i32, i32* %6, align 4
  %47 = sext i32 %46 to i64
  %48 = getelementptr inbounds [200 x i8], [200 x i8]* %4, i64 0, i64 %47
  %49 = load i8, i8* %48, align 1
  %50 = sext i8 %49 to i32
  %51 = icmp eq i32 %50, 41
  br i1 %51, label %52, label %63

52:                                               ; preds = %45
  %53 = getelementptr inbounds [200 x i8], [200 x i8]* %4, i64 0, i64 0
  %54 = load i32, i32* %6, align 4
  %55 = load i32, i32* %5, align 4
  %56 = call i32 @youk(i8* %53, i32 %54, i32 %55)
  %57 = icmp ne i32 %56, 0
  br i1 %57, label %60, label %58

58:                                               ; preds = %52
  %59 = call i32 @putchar(i32 63)
  br label %62

60:                                               ; preds = %52
  %61 = call i32 @putchar(i32 32)
  br label %62

62:                                               ; preds = %60, %58
  br label %65

63:                                               ; preds = %45
  %64 = call i32 @putchar(i32 32)
  br label %65

65:                                               ; preds = %63, %62
  br label %66

66:                                               ; preds = %65, %44
  br label %67

67:                                               ; preds = %66
  %68 = load i32, i32* %6, align 4
  %69 = add nsw i32 %68, 1
  store i32 %69, i32* %6, align 4
  br label %23

70:                                               ; preds = %23
  %71 = call i32 (i8*, ...) @printf(i8* getelementptr inbounds ([2 x i8], [2 x i8]* @.str.2, i64 0, i64 0))
  br label %72

72:                                               ; preds = %70
  %73 = load i32, i32* %3, align 4
  %74 = add nsw i32 %73, 1
  store i32 %74, i32* %3, align 4
  br label %9

75:                                               ; preds = %9
  ret i32 0
}

declare dso_local i32 @__isoc99_scanf(i8*, ...) #1

declare dso_local i32 @getchar() #1

declare dso_local i32 @printf(i8*, ...) #1

; Function Attrs: nounwind readonly
declare dso_local i64 @strlen(i8*) #2

declare dso_local i32 @putchar(i32) #1


!llvm.module.flags = !{!0}
!llvm.ident = !{!1}

!0 = !{i32 1, !"wchar_size", i32 4}
!1 = !{!"clang version 10.0.0-4ubuntu1 "}
